target datalayout = "e-m:e-p270:32:32-p271:32:32-p272:64:64-i64:64-i128:128-f80:128-n8:16:32:64-S128"
target triple = "x86_64-pc-linux-gnu"

%struct.anon.0 = type { i8, i8 }
%struct.rb_random_mt_t = type { %struct.rb_random_struct, %struct.MT }
%struct.rb_random_struct = type { i64 }
%struct.MT = type { [624 x i32], ptr, i32 }
%union.anon.22 = type { double }

@default_rand_key = internal global ptr null, align 8
@random_mt_if = internal constant { i64, %struct.anon.0, i16, [4 x i8], ptr, ptr, ptr, ptr, ptr } { i64 128, %struct.anon.0 { i8 1, i8 0 }, i16 0, [4 x i8] zeroinitializer, ptr @rand_mt_init, ptr @rand_mt_init_int32, ptr @rand_mt_get_int32, ptr @rand_mt_get_bytes, ptr null }, align 8

; Function Attrs: inlinehint nounwind sspstrong uwtable
define internal i64 @RUBY_BIT_ROTL(i64 noundef %0, i32 noundef %1) #4 {
  %3 = alloca i64, align 8
  %4 = alloca i32, align 4
  store i64 %0, ptr %3, align 8, !tbaa !26
  store i32 %1, ptr %4, align 4, !tbaa !19
  %5 = load i64, ptr %3, align 8, !tbaa !26
  %6 = load i32, ptr %4, align 4, !tbaa !19
  %7 = sext i32 %6 to i64
  %8 = call i64 @llvm.fshl.i64(i64 %5, i64 %5, i64 %7)
  ret i64 %8
}

; Function Attrs: nounwind sspstrong uwtable
define internal ptr @rand_mt_start(ptr noundef %0) #0 {
  %2 = alloca ptr, align 8
  store ptr %0, ptr %2, align 8, !tbaa !20
  %3 = load ptr, ptr %2, align 8, !tbaa !20
  %4 = getelementptr inbounds nuw %struct.rb_random_mt_t, ptr %3, i32 0, i32 1
  %5 = getelementptr inbounds nuw %struct.MT, ptr %4, i32 0, i32 1
  %6 = load ptr, ptr %5, align 8, !tbaa !70
  %7 = icmp ne ptr %6, null
  br i1 %7, label %16, label %8

8:                                                ; preds = %1
  %9 = load ptr, ptr %2, align 8, !tbaa !20
  %10 = getelementptr inbounds nuw %struct.rb_random_mt_t, ptr %9, i32 0, i32 0
  %11 = call i64 @random_seed(i64 noundef 36)
  %12 = call i64 @rand_init(ptr noundef @random_mt_if, ptr noundef %10, i64 noundef %11)
  %13 = load ptr, ptr %2, align 8, !tbaa !20
  %14 = getelementptr inbounds nuw %struct.rb_random_mt_t, ptr %13, i32 0, i32 0
  %15 = getelementptr inbounds nuw %struct.rb_random_struct, ptr %14, i32 0, i32 0
  store i64 %12, ptr %15, align 8, !tbaa !72
  br label %16

16:                                               ; preds = %8, %1
  %17 = load ptr, ptr %2, align 8, !tbaa !20
  ret ptr %17
}

; Function Attrs: inlinehint nounwind sspstrong uwtable
define internal i64 @rb_float_new_inline(double noundef %0) #4 {
  %2 = alloca i64, align 8
  %3 = alloca double, align 8
  %4 = alloca %union.anon.22, align 8
  %5 = alloca i32, align 4
  %6 = alloca i32, align 4
  store double %0, ptr %3, align 8, !tbaa !47
  call void @llvm.lifetime.start.p0(i64 8, ptr %4) #24
  call void @llvm.lifetime.start.p0(i64 4, ptr %5) #24
  %7 = load double, ptr %3, align 8, !tbaa !47
  store double %7, ptr %4, align 8, !tbaa !50
  %8 = load i64, ptr %4, align 8, !tbaa !50
  %9 = lshr i64 %8, 60
  %10 = and i64 %9, 7
  %11 = trunc i64 %10 to i32
  store i32 %11, ptr %5, align 4, !tbaa !19
  %12 = load i64, ptr %4, align 8, !tbaa !50
  %13 = icmp ne i64 %12, 3458764513820540928
  br i1 %13, label %14, label %24

14:                                               ; preds = %1
  %15 = load i32, ptr %5, align 4, !tbaa !19
  %16 = sub i32 %15, 3
  %17 = and i32 %16, -2
  %18 = icmp ne i32 %17, 0
  br i1 %18, label %24, label %19

19:                                               ; preds = %14
  %20 = load i64, ptr %4, align 8, !tbaa !50
  %21 = call i64 @RUBY_BIT_ROTL(i64 noundef %20, i32 noundef 3)
  %22 = and i64 %21, -2
  %23 = or i64 %22, 2
  store i64 %23, ptr %2, align 8
  store i32 1, ptr %6, align 4
  br label %32

24:                                               ; preds = %14, %1
  %25 = load i64, ptr %4, align 8, !tbaa !50
  %26 = icmp eq i64 %25, 0
  br i1 %26, label %27, label %28

27:                                               ; preds = %24
  store i64 -9223372036854775806, ptr %2, align 8
  store i32 1, ptr %6, align 4
  br label %32

28:                                               ; preds = %24
  br label %29

29:                                               ; preds = %28
  %30 = load double, ptr %3, align 8, !tbaa !47
  %31 = call i64 @rb_float_new_in_heap(double noundef %30)
  store i64 %31, ptr %2, align 8
  store i32 1, ptr %6, align 4
  br label %32

32:                                               ; preds = %29, %27, %19
  call void @llvm.lifetime.end.p0(i64 4, ptr %5) #24
  call void @llvm.lifetime.end.p0(i64 8, ptr %4) #24
  %33 = load i64, ptr %2, align 8
  ret i64 %33
}

; Function Attrs: inlinehint nounwind sspstrong willreturn memory(none) uwtable
define internal zeroext i1 @RB_NIL_P(i64 noundef %0) #8 {
  %2 = alloca i64, align 8
  store i64 %0, ptr %2, align 8, !tbaa !26
  %3 = load i64, ptr %2, align 8, !tbaa !26
  %4 = icmp eq i64 %3, 4
  ret i1 %4
}

; Function Attrs: inlinehint nounwind sspstrong uwtable
define internal i32 @rb_check_arity(i32 noundef %0, i32 noundef %1, i32 noundef %2) #4 {
  %4 = alloca i32, align 4
  %5 = alloca i32, align 4
  %6 = alloca i32, align 4
  store i32 %0, ptr %4, align 4, !tbaa !19
  store i32 %1, ptr %5, align 4, !tbaa !19
  store i32 %2, ptr %6, align 4, !tbaa !19
  %7 = load i32, ptr %4, align 4, !tbaa !19
  %8 = load i32, ptr %5, align 4, !tbaa !19
  %9 = icmp slt i32 %7, %8
  br i1 %9, label %17, label %10

10:                                               ; preds = %3
  %11 = load i32, ptr %6, align 4, !tbaa !19
  %12 = icmp ne i32 %11, -1
  br i1 %12, label %13, label %21

13:                                               ; preds = %10
  %14 = load i32, ptr %4, align 4, !tbaa !19
  %15 = load i32, ptr %6, align 4, !tbaa !19
  %16 = icmp sgt i32 %14, %15
  br i1 %16, label %17, label %21

17:                                               ; preds = %13, %3
  %18 = load i32, ptr %4, align 4, !tbaa !19
  %19 = load i32, ptr %5, align 4, !tbaa !19
  %20 = load i32, ptr %6, align 4, !tbaa !19
  call void @rb_error_arity(i32 noundef %18, i32 noundef %19, i32 noundef %20) #27
  unreachable

21:                                               ; preds = %13, %10
  %22 = load i32, ptr %4, align 4, !tbaa !19
  ret i32 %22
}

; Function Attrs: nounwind sspstrong uwtable
define internal ptr @rand_start(ptr noundef %0) #0 {
  %2 = alloca ptr, align 8
  store ptr %0, ptr %2, align 8, !tbaa !20
  %3 = load ptr, ptr %2, align 8, !tbaa !20
  %4 = call ptr @rand_mt_start(ptr noundef %3)
  %5 = getelementptr inbounds nuw %struct.rb_random_mt_t, ptr %4, i32 0, i32 0
  ret ptr %5
}

; Function Attrs: nounwind sspstrong uwtable
define internal ptr @default_rand() #0 {
  %1 = alloca ptr, align 8
  call void @llvm.lifetime.start.p0(i64 8, ptr %1) #24
  %2 = load ptr, ptr @default_rand_key, align 8, !tbaa !7
  %3 = call ptr @rb_ractor_local_storage_ptr(ptr noundef %2)
  store ptr %3, ptr %1, align 8, !tbaa !20
  %4 = icmp eq ptr %3, null
  br i1 %4, label %5, label %9

5:                                                ; preds = %0
  %6 = call noalias nonnull ptr @ruby_xcalloc(i64 noundef 1, i64 noundef 2520) #29
  store ptr %6, ptr %1, align 8, !tbaa !20
  %7 = load ptr, ptr @default_rand_key, align 8, !tbaa !7
  %8 = load ptr, ptr %1, align 8, !tbaa !20
  call void @rb_ractor_local_storage_ptr_set(ptr noundef %7, ptr noundef %8)
  br label %9

9:                                                ; preds = %5, %0
  %10 = load ptr, ptr %1, align 8, !tbaa !20
  call void @llvm.lifetime.end.p0(i64 8, ptr %1) #24
  ret ptr %10
}

; Function Attrs: nounwind sspstrong uwtable
define internal i64 @rb_f_rand(i32 noundef %0, ptr noundef %1, i64 noundef %2) #0 {
  %4 = alloca i64, align 8
  %5 = alloca i32, align 4
  %6 = alloca ptr, align 8
  %7 = alloca i64, align 8
  %8 = alloca i64, align 8
  %9 = alloca ptr, align 8
  %10 = alloca i64, align 8
  %11 = alloca i32, align 4
  store i32 %0, ptr %5, align 4, !tbaa !19
  store ptr %1, ptr %6, align 8, !tbaa !55
  store i64 %2, ptr %7, align 8, !tbaa !26
  call void @llvm.lifetime.start.p0(i64 8, ptr %8) #24
  call void @llvm.lifetime.start.p0(i64 8, ptr %9) #24
  %12 = call ptr @default_rand()
  %13 = call ptr @rand_start(ptr noundef %12)
  store ptr %13, ptr %9, align 8, !tbaa !24
  %14 = load i32, ptr %5, align 4, !tbaa !19
  %15 = call i32 @rb_check_arity(i32 noundef %14, i32 noundef 0, i32 noundef 1)
  %16 = icmp ne i32 %15, 0
  br i1 %16, label %17, label %50

17:                                               ; preds = %3
  %18 = load ptr, ptr %6, align 8, !tbaa !55
  %19 = getelementptr i64, ptr %18, i64 0
  %20 = load i64, ptr %19, align 8, !tbaa !26
  store i64 %20, ptr %8, align 8, !tbaa !26
  %21 = call zeroext i1 @RB_NIL_P(i64 noundef %20) #28
  br i1 %21, label %50, label %22

22:                                               ; preds = %17
  call void @llvm.lifetime.start.p0(i64 8, ptr %10) #24
  %23 = load i64, ptr %7, align 8, !tbaa !26
  %24 = load ptr, ptr %9, align 8, !tbaa !24
  %25 = load i64, ptr %8, align 8, !tbaa !26
  %26 = call i64 @rand_range(i64 noundef %23, ptr noundef %24, i64 noundef %25)
  store i64 %26, ptr %10, align 8, !tbaa !26
  %27 = load i64, ptr %10, align 8, !tbaa !26
  %28 = icmp ne i64 %27, 0
  br i1 %28, label %29, label %31

29:                                               ; preds = %22
  %30 = load i64, ptr %10, align 8, !tbaa !26
  store i64 %30, ptr %4, align 8
  store i32 1, ptr %11, align 4
  br label %47

31:                                               ; preds = %22
  %32 = load i64, ptr %8, align 8, !tbaa !26
  %33 = call i64 @rb_to_int(i64 noundef %32)
  store i64 %33, ptr %8, align 8, !tbaa !26
  %34 = load i64, ptr %8, align 8, !tbaa !26
  %35 = icmp ne i64 %34, 1
  br i1 %35, label %36, label %46

36:                                               ; preds = %31
  %37 = load i64, ptr %7, align 8, !tbaa !26
  %38 = load ptr, ptr %9, align 8, !tbaa !24
  %39 = load i64, ptr %8, align 8, !tbaa !26
  %40 = call i64 @rand_int(i64 noundef %37, ptr noundef %38, i64 noundef %39, i32 noundef 0)
  store i64 %40, ptr %10, align 8, !tbaa !26
  %41 = load i64, ptr %10, align 8, !tbaa !26
  %42 = call zeroext i1 @RB_NIL_P(i64 noundef %41) #28
  br i1 %42, label %45, label %43

43:                                               ; preds = %36
  %44 = load i64, ptr %10, align 8, !tbaa !26
  store i64 %44, ptr %4, align 8
  store i32 1, ptr %11, align 4
  br label %47

45:                                               ; preds = %36
  br label %46

46:                                               ; preds = %45, %31
  store i32 0, ptr %11, align 4
  br label %47

47:                                               ; preds = %46, %43, %29
  call void @llvm.lifetime.end.p0(i64 8, ptr %10) #24
  %48 = load i32, ptr %11, align 4
  switch i32 %48, label %55 [
    i32 0, label %49
  ]

49:                                               ; preds = %47
  br label %50

50:                                               ; preds = %49, %17, %3
  %51 = load i64, ptr %7, align 8, !tbaa !26
  %52 = load ptr, ptr %9, align 8, !tbaa !24
  %53 = call double @random_real(i64 noundef %51, ptr noundef %52, i32 noundef 1)
  %54 = call i64 @rb_float_new_inline(double noundef %53)
  store i64 %54, ptr %4, align 8
  store i32 1, ptr %11, align 4
  br label %55

55:                                               ; preds = %50, %47
  call void @llvm.lifetime.end.p0(i64 8, ptr %9) #24
  call void @llvm.lifetime.end.p0(i64 8, ptr %8) #24
  %56 = load i64, ptr %4, align 8
  ret i64 %56
}