; Function Attrs: nounwind sspstrong uwtable
define internal i64 @rb_f_rand(i32 noundef %0, ptr noundef readonly captures(none) %1, i64 noundef %2) #0 {
  %4 = load ptr, ptr @default_rand_key, align 8, !tbaa !7
  %5 = tail call ptr @rb_ractor_local_storage_ptr(ptr noundef %4) #23
  %6 = icmp eq ptr %5, null
  br i1 %6, label %7, label %default_rand.exit

7:                                                ; preds = %3
  %8 = tail call noalias nonnull dereferenceable(2520) ptr @ruby_xcalloc(i64 noundef 1, i64 noundef 2520) #24
  %9 = load ptr, ptr @default_rand_key, align 8, !tbaa !7
  tail call void @rb_ractor_local_storage_ptr_set(ptr noundef %9, ptr noundef nonnull %8) #23
  br label %default_rand.exit

default_rand.exit:                                ; preds = %3, %7
  %.0.i = phi ptr [ %8, %7 ], [ %5, %3 ]
  %10 = getelementptr inbounds nuw i8, ptr %.0.i, i64 2504
  %11 = load ptr, ptr %10, align 8, !tbaa !12
  %.not.i.i = icmp eq ptr %11, null
  br i1 %.not.i.i, label %12, label %rand_start.exit

12:                                               ; preds = %default_rand.exit
  %13 = tail call i64 @random_seed(i64 poison)
  %14 = tail call fastcc i64 @rand_init(ptr noundef nonnull @random_mt_if, ptr noundef nonnull %.0.i, i64 noundef %13)
  store i64 %13, ptr %.0.i, align 8, !tbaa !19
  br label %rand_start.exit

rand_start.exit:                                  ; preds = %default_rand.exit, %12
  %or.cond.i = icmp ugt i32 %0, 1
  br i1 %or.cond.i, label %15, label %rb_check_arity.exit

15:                                               ; preds = %rand_start.exit
  tail call void @rb_error_arity(i32 noundef %0, i32 noundef 0, i32 noundef 1) #25
  unreachable

rb_check_arity.exit:                              ; preds = %rand_start.exit
  %.not = icmp eq i32 %0, 0
  br i1 %.not, label %26, label %16

16:                                               ; preds = %rb_check_arity.exit
  %17 = load i64, ptr %1, align 8, !tbaa !43
  %18 = icmp eq i64 %17, 4
  br i1 %18, label %26, label %19

19:                                               ; preds = %16
  %20 = tail call fastcc i64 @rand_range(i64 noundef %2, ptr noundef nonnull %.0.i, i64 noundef %17)
  %.not20 = icmp eq i64 %20, 0
  br i1 %.not20, label %21, label %rb_float_new_inline.exit

21:                                               ; preds = %19
  %22 = tail call i64 @rb_to_int(i64 noundef %17) #23
  %.not21 = icmp eq i64 %22, 1
  br i1 %.not21, label %26, label %23

23:                                               ; preds = %21
  %24 = tail call fastcc i64 @rand_int(i64 noundef %2, ptr noundef nonnull %.0.i, i64 noundef %22, i32 noundef 0)
  %25 = icmp eq i64 %24, 4
  br i1 %25, label %26, label %rb_float_new_inline.exit

26:                                               ; preds = %23, %21, %16, %rb_check_arity.exit
  %27 = tail call fastcc double @random_real(i64 noundef %2, ptr noundef nonnull %.0.i, i32 noundef 1)
  %28 = bitcast double %27 to i64
  %cond.i = icmp eq i64 %28, 3458764513820540928
  br i1 %cond.i, label %40, label %29

29:                                               ; preds = %26
  %30 = lshr i64 %28, 60
  %31 = trunc nuw nsw i64 %30 to i32
  %32 = and i32 %31, 7
  %33 = add nsw i32 %32, -3
  %.not7.i = icmp ult i32 %33, 2
  br i1 %.not7.i, label %34, label %38

34:                                               ; preds = %29
  %35 = tail call noundef i64 @llvm.fshl.i64(i64 range(i64 3458764513820540929, 3458764513820540928) %28, i64 range(i64 3458764513820540929, 3458764513820540928) %28, i64 3)
  %36 = and i64 %35, -4
  %37 = or disjoint i64 %36, 2
  br label %rb_float_new_inline.exit

38:                                               ; preds = %29
  %39 = icmp eq i64 %28, 0
  br i1 %39, label %rb_float_new_inline.exit, label %40

40:                                               ; preds = %38, %26
  %41 = tail call i64 @rb_float_new_in_heap(double noundef %27) #23
  br label %rb_float_new_inline.exit

rb_float_new_inline.exit:                         ; preds = %23, %19, %40, %38, %34
  %.1 = phi i64 [ %41, %40 ], [ %37, %34 ], [ -9223372036854775806, %38 ], [ %24, %23 ], [ %20, %19 ]
  ret i64 %.1
}